target datalayout = "e-m:e-p270:32:32-p271:32:32-p272:64:64-i64:64-i128:128-f80:128-n8:16:32:64-S128"
target triple = "x86_64-pc-linux-gnu"

%"struct.(anonymous namespace)::I801B1" = type <{ ptr, i32, [4 x i8] }>
%"struct.(anonymous namespace)::I801B2" = type <{ ptr, i32, [4 x i8] }>
%class.anon.1329 = type { i8 }

@_ZTVN12_GLOBAL__N_16I801B1E = internal unnamed_addr constant { [4 x ptr] } { [4 x ptr] [ptr null, ptr @_ZTIN12_GLOBAL__N_16I801B1E, ptr @_ZN12_GLOBAL__N_16I801B1D2Ev, ptr @_ZN12_GLOBAL__N_16I801B1D0Ev] }, align 8
@_ZTVN12_GLOBAL__N_16I801B2E = internal unnamed_addr constant { [4 x ptr] } { [4 x ptr] [ptr null, ptr @_ZTIN12_GLOBAL__N_16I801B2E, ptr @_ZN12_GLOBAL__N_16I801B2D2Ev, ptr @_ZN12_GLOBAL__N_16I801B2D0Ev] }, align 8

; Function Attrs: mustprogress nounwind uwtable
define internal void @_ZN12_GLOBAL__N_16I801B2C2ERKS0_(ptr noundef nonnull align 8 dereferenceable(12) %0, ptr noundef nonnull align 8 dereferenceable(12) %1) unnamed_addr #5 align 2 {
  %3 = alloca ptr, align 8
  %4 = alloca ptr, align 8
  store ptr %0, ptr %3, align 8, !tbaa !2845
  store ptr %1, ptr %4, align 8, !tbaa !2845
  %5 = load ptr, ptr %3, align 8
  store ptr getelementptr inbounds inrange(-16, 16) ({ [4 x ptr] }, ptr @_ZTVN12_GLOBAL__N_16I801B2E, i32 0, i32 0, i32 2), ptr %5, align 8, !tbaa !246
  %6 = getelementptr inbounds nuw %"struct.(anonymous namespace)::I801B2", ptr %5, i32 0, i32 1
  %7 = load ptr, ptr %4, align 8, !tbaa !2845
  %8 = getelementptr inbounds nuw %"struct.(anonymous namespace)::I801B2", ptr %7, i32 0, i32 1
  %9 = load i32, ptr %8, align 8, !tbaa !2859
  store i32 %9, ptr %6, align 8, !tbaa !2859
  ret void
}

; Function Attrs: mustprogress nounwind uwtable
define internal void @_ZN12_GLOBAL__N_16I801B1C2ERKS0_(ptr noundef nonnull align 8 dereferenceable(12) %0, ptr noundef nonnull align 8 dereferenceable(12) %1) unnamed_addr #5 align 2 {
  %3 = alloca ptr, align 8
  %4 = alloca ptr, align 8
  store ptr %0, ptr %3, align 8, !tbaa !2799
  store ptr %1, ptr %4, align 8, !tbaa !2799
  %5 = load ptr, ptr %3, align 8
  store ptr getelementptr inbounds inrange(-16, 16) ({ [4 x ptr] }, ptr @_ZTVN12_GLOBAL__N_16I801B1E, i32 0, i32 0, i32 2), ptr %5, align 8, !tbaa !246
  %6 = getelementptr inbounds nuw %"struct.(anonymous namespace)::I801B1", ptr %5, i32 0, i32 1
  %7 = load ptr, ptr %4, align 8, !tbaa !2799
  %8 = getelementptr inbounds nuw %"struct.(anonymous namespace)::I801B1", ptr %7, i32 0, i32 1
  %9 = load i32, ptr %8, align 8, !tbaa !2819
  store i32 %9, ptr %6, align 8, !tbaa !2819
  ret void
}

; Function Attrs: inlinehint mustprogress nounwind uwtable
define internal void @_ZN12_GLOBAL__N_15I801CC2EOS0_(ptr noundef nonnull align 8 dereferenceable(28) %0, ptr noundef nonnull align 8 dereferenceable(28) %1) unnamed_addr #0 align 2 {
  %3 = alloca ptr, align 8
  %4 = alloca ptr, align 8
  store ptr %0, ptr %3, align 8, !tbaa !2875
  store ptr %1, ptr %4, align 8, !tbaa !2875
  %5 = load ptr, ptr %3, align 8
  %6 = load ptr, ptr %4, align 8, !tbaa !2875
  call void @_ZN12_GLOBAL__N_16I801B1C2ERKS0_(ptr noundef nonnull align 8 dereferenceable(12) %5, ptr noundef nonnull align 8 dereferenceable(12) %6) #24
  %7 = getelementptr inbounds i8, ptr %5, i64 16
  %8 = load ptr, ptr %4, align 8, !tbaa !2875
  %9 = getelementptr inbounds i8, ptr %8, i64 16
  call void @_ZN12_GLOBAL__N_16I801B2C2ERKS0_(ptr noundef nonnull align 8 dereferenceable(12) %7, ptr noundef nonnull align 8 dereferenceable(12) %9) #24
  store ptr getelementptr inbounds inrange(-16, 16) ({ [4 x ptr], [4 x ptr] }, ptr @_ZTVN12_GLOBAL__N_15I801CE, i32 0, i32 0, i32 2), ptr %5, align 8, !tbaa !246
  %10 = getelementptr inbounds i8, ptr %5, i64 16
  store ptr getelementptr inbounds inrange(-16, 16) ({ [4 x ptr], [4 x ptr] }, ptr @_ZTVN12_GLOBAL__N_15I801CE, i32 0, i32 1, i32 2), ptr %10, align 8, !tbaa !246
  ret void
}

; Function Attrs: inlinehint mustprogress uwtable
define internal noundef ptr @_ZZN8pybind116detail16type_caster_baseIN12_GLOBAL__N_15I801CEE21make_move_constructorIS3_vEEDTcmnw_T_piclsr3stdE7declvalIOS6_EEEtlPFPvPKvEEEPKS6_ENKUlSA_E_clESA_(ptr noundef nonnull align 1 dereferenceable(1) %0, ptr noundef %1) #10 align 2 {
  %3 = alloca ptr, align 8
  %4 = alloca ptr, align 8
  store ptr %0, ptr %3, align 8, !tbaa !85
  store ptr %1, ptr %4, align 8, !tbaa !85
  %5 = call noalias noundef nonnull ptr @_Znwm(i64 noundef 32) #31
  %6 = load ptr, ptr %4, align 8, !tbaa !85
  call void @_ZN12_GLOBAL__N_15I801CC2EOS0_(ptr noundef nonnull align 8 dereferenceable(28) %5, ptr noundef nonnull align 8 dereferenceable(28) %6) #24
  ret ptr %5
}

; Function Attrs: inlinehint mustprogress uwtable
define internal noundef ptr @_ZZN8pybind116detail16type_caster_baseIN12_GLOBAL__N_15I801CEE21make_move_constructorIS3_vEEDTcmnw_T_piclsr3stdE7declvalIOS6_EEEtlPFPvPKvEEEPKS6_ENUlSA_E_8__invokeESA_(ptr noundef %0) #10 align 2 {
  %2 = alloca ptr, align 8
  %3 = alloca %class.anon.1329, align 1
  store ptr %0, ptr %2, align 8, !tbaa !85
  %4 = load ptr, ptr %2, align 8, !tbaa !85
  %5 = call noundef ptr @_ZZN8pybind116detail16type_caster_baseIN12_GLOBAL__N_15I801CEE21make_move_constructorIS3_vEEDTcmnw_T_piclsr3stdE7declvalIOS6_EEEtlPFPvPKvEEEPKS6_ENKUlSA_E_clESA_(ptr noundef nonnull align 1 dereferenceable(1) %3, ptr noundef %4)
  ret ptr %5
}